target datalayout = "e-m:e-p270:32:32-p271:32:32-p272:64:64-i64:64-i128:128-f80:128-n8:16:32:64-S128"
target triple = "x86_64-unknown-linux-gnu"

%struct.SysBusDevice = type { %struct.DeviceState, i32, [32 x %struct.anon], i32, [32 x i32] }
%struct.DeviceState = type { %struct.Object, ptr, ptr, i8, i8, i64, ptr, i32, i8, ptr, %struct.NamedGPIOListHead, %struct.NamedClockListHead, %struct.BusStateHead, i32, i32, i32, %struct.ResettableState, ptr, %struct.MemReentrancyGuard }
%struct.Object = type { ptr, ptr, ptr, i32, ptr }
%struct.NamedGPIOListHead = type { ptr }
%struct.NamedClockListHead = type { ptr }
%struct.BusStateHead = type { ptr }
%struct.ResettableState = type { i32, i8, i8 }
%struct.MemReentrancyGuard = type { i8 }
%struct.anon = type { i64, ptr }
%struct.MemoryRegion = type { %struct.Object, i8, i8, i8, i8, i8, i8, i8, i8, i8, i8, ptr, ptr, ptr, ptr, ptr, ptr, i32, i128, i64, ptr, i64, i8, i8, i8, i8, i8, ptr, i64, i32, %union.anon, %union.anon.0, %union.anon.1, ptr, i32, ptr, ptr, i8 }
%union.anon = type { %struct.QTailQLink }
%struct.QTailQLink = type { ptr, ptr }
%union.anon.0 = type { %struct.QTailQLink }
%union.anon.1 = type { %struct.QTailQLink }
%struct.CPUState = type { %struct.DeviceState, ptr, i32, i32, ptr, i32, i8, i8, ptr, i8, i8, i8, i8, i8, i8, i8, i8, i32, i32, i32, i32, i64, i64, i64, [1 x %struct.__jmp_buf_tag], %struct.QemuMutex, %struct.anon.2, ptr, i32, ptr, ptr, ptr, ptr, i32, i32, %union.anon.3, %union.anon.4, %union.anon.5, ptr, ptr, i64, i32, ptr, ptr, ptr, i32, i64, i32, %struct.QemuLockCnt, [1 x i64], ptr, i32, i32, i32, i32, i32, ptr, i8, i8, i64, i8, i8, ptr, [8 x i8], [0 x i8], %struct.CPUNegativeOffsetState }
%struct.__jmp_buf_tag = type { [8 x i64], i32, %struct.__sigset_t }
%struct.__sigset_t = type { [16 x i64] }
%struct.QemuMutex = type { %union.pthread_mutex_t, i8 }
%union.pthread_mutex_t = type { %struct.__pthread_mutex_s }
%struct.__pthread_mutex_s = type { i32, i32, i32, i32, i32, i16, i16, %struct.__pthread_internal_list }
%struct.__pthread_internal_list = type { ptr, ptr }
%struct.anon.2 = type { ptr, ptr }
%union.anon.3 = type { %struct.QTailQLink }
%union.anon.4 = type { %struct.QTailQLink }
%union.anon.5 = type { %struct.QTailQLink }
%struct.QemuLockCnt = type { i32 }
%struct.CPUNegativeOffsetState = type { %struct.CPUTLB, %union.IcountDecr, i8, [11 x i8] }
%struct.CPUTLB = type { %struct.CPUTLBCommon, [16 x %struct.CPUTLBDesc], [16 x %struct.CPUTLBDescFast] }
%struct.CPUTLBCommon = type { %struct.QemuSpin, i16, i64, i64, i64 }
%struct.QemuSpin = type { i32 }
%struct.CPUTLBDesc = type { i64, i64, i64, i64, i64, i64, [8 x %union.CPUTLBEntry], [8 x %struct.CPUTLBEntryFull], ptr }
%union.CPUTLBEntry = type { %struct.anon.6 }
%struct.anon.6 = type { i64, i64, i64, i64 }
%struct.CPUTLBEntryFull = type { i64, i64, %struct.MemTxAttrs, i8, i8, [3 x i8], %union.anon.7 }
%struct.MemTxAttrs = type { i32 }
%union.anon.7 = type { %struct.anon.8 }
%struct.anon.8 = type { i8, i8, i8 }
%struct.CPUTLBDescFast = type { i64, ptr }
%union.IcountDecr = type { i32 }
%struct.RISCVAclintSwiState = type { %struct.SysBusDevice, %struct.MemoryRegion, i32, i32, i32, ptr }
%struct.CPUArchState = type { [32 x i64], [32 x i64], [512 x i64], i64, i64, i64, i64, i64, i8, i64, i64, i64, [32 x i64], i64, %struct.float_status, i64, i64, i64, i64, i64, i64, i32, i32, i32, i32, i32, i64, i64, i64, i8, i64, i64, i64, i64, i64, i8, i8, i64, i64, i64, i64, i64, i64, i64, i64, i64, i64, i64, i64, i64, i64, i64, [64 x i8], [64 x i8], i64, i64, i64, i64, i64, i64, i64, i64, i64, i64, i64, i64, i64, i64, i64, i64, i64, [64 x i8], i64, i64, i64, i64, i64, i64, i64, i64, i64, i64, i64, i64, i64, i64, i64, i64, i64, i64, i64, i8, i8, i64, i64, i64, [32 x %struct.PMUCTRState], [32 x i64], [32 x i64], i64, i64, i64, i64, %struct.pmp_table_t, i64, i64, [2 x i64], [2 x i64], [2 x i64], [2 x ptr], [2 x ptr], [2 x ptr], i64, i8, ptr, ptr, [4 x ptr], [4 x ptr], i8, i64, i64, i64, i64, i64, i64, i64, i64, [4 x i64], [4 x i64], [4 x i64], i64, i64, i64, i64, ptr, ptr, i8, i64, i64, [8 x i8] }
%struct.float_status = type { i16, i8, i8, i8, i8, i8, i8, i8, i8, i8, i8, i8 }
%struct.PMUCTRState = type { i64, i64, i64, i64, i8, i64 }
%struct.pmp_table_t = type { [16 x %struct.pmp_entry_t], [16 x %struct.pmp_addr_t], i32 }
%struct.pmp_entry_t = type { i64, i8 }
%struct.pmp_addr_t = type { i64, i64 }

@qemu_loglevel = external global i32, align 4
@.str.33 = private unnamed_addr constant [32 x i8] c"aclint-swi: invalid hartid: %zu\00", align 1
@.str.34 = private unnamed_addr constant [31 x i8] c"aclint-swi: invalid read: %08x\00", align 1

; Function Attrs: nounwind sspstrong uwtable
define internal zeroext i1 @qemu_loglevel_mask(i32 noundef %mask) #0 {
entry:
  %mask.addr = alloca i32, align 4
  store i32 %mask, ptr %mask.addr, align 4
  %0 = load i32, ptr @qemu_loglevel, align 4
  %1 = load i32, ptr %mask.addr, align 4
  %and = and i32 %0, %1
  %cmp = icmp ne i32 %and, 0
  ret i1 %cmp
}

; Function Attrs: nounwind sspstrong uwtable
define internal ptr @cpu_env(ptr noundef %cpu) #0 {
entry:
  %cpu.addr = alloca ptr, align 8
  store ptr %cpu, ptr %cpu.addr, align 8
  %0 = load ptr, ptr %cpu.addr, align 8
  %add.ptr = getelementptr %struct.CPUState, ptr %0, i64 1
  ret ptr %add.ptr
}

; Function Attrs: nounwind sspstrong uwtable
define internal i64 @riscv_aclint_swi_read(ptr noundef %opaque, i64 noundef %addr, i32 noundef %size) #0 {
entry:
  %retval = alloca i64, align 8
  %opaque.addr = alloca ptr, align 8
  %addr.addr = alloca i64, align 8
  %size.addr = alloca i32, align 4
  %swi = alloca ptr, align 8
  %hartid = alloca i64, align 8
  %cpu = alloca ptr, align 8
  %env = alloca ptr, align 8
  store ptr %opaque, ptr %opaque.addr, align 8
  store i64 %addr, ptr %addr.addr, align 8
  store i32 %size, ptr %size.addr, align 4
  %0 = load ptr, ptr %opaque.addr, align 8
  store ptr %0, ptr %swi, align 8
  %1 = load i64, ptr %addr.addr, align 8
  %2 = load ptr, ptr %swi, align 8
  %num_harts = getelementptr inbounds %struct.RISCVAclintSwiState, ptr %2, i32 0, i32 3
  %3 = load i32, ptr %num_harts, align 4
  %shl = shl i32 %3, 2
  %conv = zext i32 %shl to i64
  %cmp = icmp ult i64 %1, %conv
  br i1 %cmp, label %if.then, label %if.end25

if.then:                                          ; preds = %entry
  %4 = load ptr, ptr %swi, align 8
  %hartid_base = getelementptr inbounds %struct.RISCVAclintSwiState, ptr %4, i32 0, i32 2
  %5 = load i32, ptr %hartid_base, align 16
  %conv2 = zext i32 %5 to i64
  %6 = load i64, ptr %addr.addr, align 8
  %shr = lshr i64 %6, 2
  %add = add i64 %conv2, %shr
  store i64 %add, ptr %hartid, align 8
  %7 = load i64, ptr %hartid, align 8
  %call = call ptr @cpu_by_arch_id(i64 noundef %7)
  store ptr %call, ptr %cpu, align 8
  %8 = load ptr, ptr %cpu, align 8
  %tobool = icmp ne ptr %8, null
  br i1 %tobool, label %cond.true, label %cond.false

cond.true:                                        ; preds = %if.then
  %9 = load ptr, ptr %cpu, align 8
  %call3 = call ptr @cpu_env(ptr noundef %9)
  br label %cond.end

cond.false:                                       ; preds = %if.then
  br label %cond.end

cond.end:                                         ; preds = %cond.false, %cond.true
  %cond = phi ptr [ %call3, %cond.true ], [ null, %cond.false ]
  store ptr %cond, ptr %env, align 8
  %10 = load ptr, ptr %env, align 8
  %tobool4 = icmp ne ptr %10, null
  br i1 %tobool4, label %if.else, label %if.then5

if.then5:                                         ; preds = %cond.end
  br label %do.body

do.body:                                          ; preds = %if.then5
  %call6 = call zeroext i1 @qemu_loglevel_mask(i32 noundef 2048)
  %lnot = xor i1 %call6, true
  %lnot7 = xor i1 %lnot, true
  %lnot.ext = zext i1 %lnot7 to i32
  %conv8 = sext i32 %lnot.ext to i64
  %tobool9 = icmp ne i64 %conv8, 0
  br i1 %tobool9, label %if.then10, label %if.end

if.then10:                                        ; preds = %do.body
  %11 = load i64, ptr %hartid, align 8
  call void (ptr, ...) @qemu_log(ptr noundef @.str.33, i64 noundef %11)
  br label %if.end

if.end:                                           ; preds = %if.then10, %do.body
  br label %do.end

do.end:                                           ; preds = %if.end
  br label %if.end24

if.else:                                          ; preds = %cond.end
  %12 = load i64, ptr %addr.addr, align 8
  %and = and i64 %12, 3
  %cmp11 = icmp eq i64 %and, 0
  br i1 %cmp11, label %if.then13, label %if.end23

if.then13:                                        ; preds = %if.else
  %13 = load ptr, ptr %swi, align 8
  %sswi = getelementptr inbounds %struct.RISCVAclintSwiState, ptr %13, i32 0, i32 4
  %14 = load i32, ptr %sswi, align 8
  %tobool14 = icmp ne i32 %14, 0
  br i1 %tobool14, label %cond.true15, label %cond.false16

cond.true15:                                      ; preds = %if.then13
  br label %cond.end20

cond.false16:                                     ; preds = %if.then13
  %15 = load ptr, ptr %env, align 8
  %mip = getelementptr inbounds %struct.CPUArchState, ptr %15, i32 0, i32 34
  %16 = load i64, ptr %mip, align 8
  %and17 = and i64 %16, 8
  %cmp18 = icmp ugt i64 %and17, 0
  %conv19 = zext i1 %cmp18 to i32
  br label %cond.end20

cond.end20:                                       ; preds = %cond.false16, %cond.true15
  %cond21 = phi i32 [ 0, %cond.true15 ], [ %conv19, %cond.false16 ]
  %conv22 = sext i32 %cond21 to i64
  store i64 %conv22, ptr %retval, align 8
  br label %return

if.end23:                                         ; preds = %if.else
  br label %if.end24

if.end24:                                         ; preds = %if.end23, %do.end
  br label %if.end25

if.end25:                                         ; preds = %if.end24, %entry
  br label %do.body26

do.body26:                                        ; preds = %if.end25
  %call27 = call zeroext i1 @qemu_loglevel_mask(i32 noundef 1024)
  %lnot28 = xor i1 %call27, true
  %lnot30 = xor i1 %lnot28, true
  %lnot.ext31 = zext i1 %lnot30 to i32
  %conv32 = sext i32 %lnot.ext31 to i64
  %tobool33 = icmp ne i64 %conv32, 0
  br i1 %tobool33, label %if.then34, label %if.end36

if.then34:                                        ; preds = %do.body26
  %17 = load i64, ptr %addr.addr, align 8
  %conv35 = trunc i64 %17 to i32
  call void (ptr, ...) @qemu_log(ptr noundef @.str.34, i32 noundef %conv35)
  br label %if.end36

if.end36:                                         ; preds = %if.then34, %do.body26
  br label %do.end37

do.end37:                                         ; preds = %if.end36
  store i64 0, ptr %retval, align 8
  br label %return

return:                                           ; preds = %do.end37, %cond.end20
  %18 = load i64, ptr %retval, align 8
  ret i64 %18
}