; Function Attrs: nounwind sspstrong uwtable
define internal range(i64 0, 2) i64 @riscv_aclint_swi_read(ptr noundef readonly captures(none) %opaque, i64 noundef %addr, i32 %size) #0 {
entry:
  %num_harts = getelementptr inbounds nuw i8, ptr %opaque, i64 1092
  %0 = load i32, ptr %num_harts, align 4
  %shl = shl i32 %0, 2
  %conv = zext i32 %shl to i64
  %cmp = icmp ult i64 %addr, %conv
  br i1 %cmp, label %if.then, label %do.body26

if.then:                                          ; preds = %entry
  %hartid_base = getelementptr inbounds nuw i8, ptr %opaque, i64 1088
  %1 = load i32, ptr %hartid_base, align 16
  %conv2 = zext i32 %1 to i64
  %shr = lshr i64 %addr, 2
  %add = add nuw nsw i64 %shr, %conv2
  %call = tail call ptr @cpu_by_arch_id(i64 noundef %add) #6
  %tobool.not = icmp eq ptr %call, null
  %add.ptr.i = getelementptr i8, ptr %call, i64 10176
  %tobool4.not = icmp eq ptr %add.ptr.i, null
  %or.cond = or i1 %tobool.not, %tobool4.not
  br i1 %or.cond, label %do.body, label %if.else

do.body:                                          ; preds = %if.then
  %2 = load i32, ptr @qemu_loglevel, align 4
  %and.i = and i32 %2, 2048
  %cmp.i.not = icmp eq i32 %and.i, 0
  br i1 %cmp.i.not, label %do.body26, label %if.then10

if.then10:                                        ; preds = %do.body
  tail call void (ptr, ...) @qemu_log(ptr noundef nonnull @.str.33, i64 noundef %add) #6
  br label %do.body26

if.else:                                          ; preds = %if.then
  %and = and i64 %addr, 3
  %cmp11 = icmp eq i64 %and, 0
  br i1 %cmp11, label %if.then13, label %do.body26

if.then13:                                        ; preds = %if.else
  %sswi = getelementptr inbounds nuw i8, ptr %opaque, i64 1096
  %3 = load i32, ptr %sswi, align 8
  %tobool14.not = icmp eq i32 %3, 0
  br i1 %tobool14.not, label %cond.false16, label %return

cond.false16:                                     ; preds = %if.then13
  %mip = getelementptr i8, ptr %call, i64 15272
  %4 = load i64, ptr %mip, align 8
  %5 = lshr i64 %4, 3
  %conv19 = and i64 %5, 1
  br label %return

do.body26:                                        ; preds = %entry, %if.else, %if.then10, %do.body
  %6 = load i32, ptr @qemu_loglevel, align 4
  %and.i9 = and i32 %6, 1024
  %cmp.i10.not = icmp eq i32 %and.i9, 0
  br i1 %cmp.i10.not, label %return, label %if.then34

if.then34:                                        ; preds = %do.body26
  %conv35 = trunc i64 %addr to i32
  tail call void (ptr, ...) @qemu_log(ptr noundef nonnull @.str.34, i32 noundef %conv35) #6
  br label %return

return:                                           ; preds = %if.then34, %do.body26, %cond.false16, %if.then13
  %retval.0 = phi i64 [ %conv19, %cond.false16 ], [ 0, %if.then13 ], [ 0, %do.body26 ], [ 0, %if.then34 ]
  ret i64 %retval.0
}